target datalayout = "e-m:e-p270:32:32-p271:32:32-p272:64:64-i64:64-i128:128-f80:128-n8:16:32:64-S128"
target triple = "x86_64-pc-linux-gnu"

%"class.StringDedup::Stat" = type { i64, i64, i64, i64, i64, i64, i64, i64, i64, i64, i64, i64, i64, i64, i64, i64, i64, %class.TimeInstant, %class.TimeInterval, %class.TimeInstant, %class.TimeInterval, %class.TimeInterval, %class.TimeInterval, %class.TimeInterval }
%class.TimeInstant = type { %class.CompositeCounterRepresentation }
%class.CompositeCounterRepresentation = type { %class.Representation }
%class.Representation = type { %class.PairRep }
%class.PairRep = type { i64, i64 }
%class.TimeInterval = type { %class.CompositeCounterRepresentation }
%class.MutexLockerImpl = type { ptr }
%"struct.Atomic::StoreImpl" = type { i8 }
%"class.StringDedup::Table::Resizer" = type { %"class.StringDedup::Table::CleanupState", ptr, i64, i64, i64 }
%"class.StringDedup::Table::CleanupState" = type { ptr }
%class.MutexLocker = type { %class.MutexLockerImpl }
%"struct.Atomic::StoreImpl.62" = type { i8 }
%"struct.Atomic::PlatformStore" = type { i8 }
%"struct.Atomic::PlatformStore.60" = type { i8 }

@StringDedup_lock = external global ptr, align 8
@_ZN11StringDedup5Table11_dead_stateE = hidden global i32 0, align 4
@_ZN11StringDedup5Table11_dead_countE = hidden global i64 0, align 8
@_ZN11StringDedup9_cur_statE = external global %"class.StringDedup::Stat", align 8
@_ZN11StringDedup5Table18_number_of_bucketsE = hidden global i64 0, align 8
@_ZN11StringDedup5Table8_bucketsE = hidden global ptr null, align 8
@_ZN11StringDedup5Table18_number_of_entriesE = hidden global i64 0, align 8
@_ZN11StringDedup5Table15_grow_thresholdE = hidden global i64 0, align 8
@_ZN11StringDedup5Table14_cleanup_stateE = hidden global ptr null, align 8
@_ZN11StringDedup5Table22_need_bucket_shrinkingE = hidden global i8 0, align 1

; Function Attrs: mustprogress nounwind uwtable
define linkonce_odr hidden noundef i32 @_ZN21CountLeadingZerosImplIiLm4EE4doitEi(i32 noundef %0) #1 comdat align 2 {
  %2 = alloca i32, align 4
  store i32 %0, ptr %2, align 4
  %3 = load i32, ptr %2, align 4
  %4 = call i32 @llvm.ctlz.i32(i32 %3, i1 true)
  ret i32 %4
}

; Function Attrs: mustprogress nounwind uwtable
define linkonce_odr hidden void @_ZNK6Atomic13PlatformStoreILm4EEclIiEEvPVT_S3_(ptr noundef nonnull align 1 dereferenceable(1) %0, ptr noundef %1, i32 noundef %2) #1 comdat align 2 {
  %4 = alloca ptr, align 8
  %5 = alloca ptr, align 8
  %6 = alloca i32, align 4
  store ptr %0, ptr %4, align 8
  store ptr %1, ptr %5, align 8
  store i32 %2, ptr %6, align 4
  %7 = load i32, ptr %6, align 4
  %8 = load ptr, ptr %5, align 8
  store volatile i32 %7, ptr %8, align 4
  ret void
}

; Function Attrs: mustprogress nounwind uwtable
define linkonce_odr hidden noundef i32 @_ZN20PrimitiveConversions9TranslateIN11StringDedup5Table9DeadStateEvE5decayES3_(i32 noundef %0) #1 comdat align 2 {
  %2 = alloca i32, align 4
  store i32 %0, ptr %2, align 4
  %3 = load i32, ptr %2, align 4
  ret i32 %3
}

; Function Attrs: mustprogress nounwind uwtable
define linkonce_odr hidden void @_ZNK6Atomic13PlatformStoreILm8EEclImEEvPVT_S3_(ptr noundef nonnull align 1 dereferenceable(1) %0, ptr noundef %1, i64 noundef %2) #1 comdat align 2 {
  %4 = alloca ptr, align 8
  %5 = alloca ptr, align 8
  %6 = alloca i64, align 8
  store ptr %0, ptr %4, align 8
  store ptr %1, ptr %5, align 8
  store i64 %2, ptr %6, align 8
  %7 = load i64, ptr %6, align 8
  %8 = load ptr, ptr %5, align 8
  store volatile i64 %7, ptr %8, align 8
  ret void
}

; Function Attrs: mustprogress nounwind uwtable
define linkonce_odr hidden noundef i32 @_Z19count_leading_zerosIiEjT_(i32 noundef %0) #1 comdat {
  %2 = alloca i32, align 4
  store i32 %0, ptr %2, align 4
  %3 = load i32, ptr %2, align 4
  %4 = call noundef i32 @_ZN21CountLeadingZerosImplIiLm4EE4doitEi(i32 noundef %3)
  ret i32 %4
}

; Function Attrs: mustprogress nounwind uwtable
define linkonce_odr hidden void @_ZN15MutexLockerImplD2Ev(ptr noundef nonnull align 8 dereferenceable(8) %0) unnamed_addr #1 comdat align 2 {
  %2 = alloca ptr, align 8
  store ptr %0, ptr %2, align 8
  %3 = load ptr, ptr %2, align 8
  %4 = getelementptr inbounds %class.MutexLockerImpl, ptr %3, i32 0, i32 0
  %5 = load ptr, ptr %4, align 8
  %6 = icmp ne ptr %5, null
  br i1 %6, label %7, label %10

7:                                                ; preds = %1
  %8 = getelementptr inbounds %class.MutexLockerImpl, ptr %3, i32 0, i32 0
  %9 = load ptr, ptr %8, align 8
  call void @_ZN5Mutex6unlockEv(ptr noundef nonnull align 8 dereferenceable(104) %9)
  br label %10

10:                                               ; preds = %7, %1
  ret void
}

; Function Attrs: mustprogress nounwind uwtable
define linkonce_odr hidden void @_ZNK6Atomic9StoreImplIN11StringDedup5Table9DeadStateES3_NS_13PlatformStoreILm4EEEvEclEPVS3_S3_(ptr noundef nonnull align 1 dereferenceable(1) %0, ptr noundef %1, i32 noundef %2) #1 comdat align 2 {
  %4 = alloca ptr, align 8
  %5 = alloca ptr, align 8
  %6 = alloca i32, align 4
  %7 = alloca %"struct.Atomic::PlatformStore.60", align 1
  store ptr %0, ptr %4, align 8
  store ptr %1, ptr %5, align 8
  store i32 %2, ptr %6, align 4
  %8 = load ptr, ptr %5, align 8
  %9 = load i32, ptr %6, align 4
  %10 = call noundef i32 @_ZN20PrimitiveConversions9TranslateIN11StringDedup5Table9DeadStateEvE5decayES3_(i32 noundef %9)
  call void @_ZNK6Atomic13PlatformStoreILm4EEclIiEEvPVT_S3_(ptr noundef nonnull align 1 dereferenceable(1) %7, ptr noundef %8, i32 noundef %10)
  ret void
}

; Function Attrs: mustprogress nounwind uwtable
define linkonce_odr hidden void @_ZNK6Atomic9StoreImplImmNS_13PlatformStoreILm8EEEvEclEPVmm(ptr noundef nonnull align 1 dereferenceable(1) %0, ptr noundef %1, i64 noundef %2) #1 comdat align 2 {
  %4 = alloca ptr, align 8
  %5 = alloca ptr, align 8
  %6 = alloca i64, align 8
  %7 = alloca %"struct.Atomic::PlatformStore", align 1
  store ptr %0, ptr %4, align 8
  store ptr %1, ptr %5, align 8
  store i64 %2, ptr %6, align 8
  %8 = load ptr, ptr %5, align 8
  %9 = load i64, ptr %6, align 8
  call void @_ZNK6Atomic13PlatformStoreILm8EEclImEEvPVT_S3_(ptr noundef nonnull align 1 dereferenceable(1) %7, ptr noundef %8, i64 noundef %9)
  ret void
}

; Function Attrs: mustprogress nounwind uwtable
define linkonce_odr hidden void @_ZN15MutexLockerImplC2EP5MutexNS0_18SafepointCheckFlagE(ptr noundef nonnull align 8 dereferenceable(8) %0, ptr noundef %1, i32 noundef %2) unnamed_addr #1 comdat align 2 {
  %4 = alloca ptr, align 8
  %5 = alloca ptr, align 8
  %6 = alloca i32, align 4
  %7 = alloca i8, align 1
  store ptr %0, ptr %4, align 8
  store ptr %1, ptr %5, align 8
  store i32 %2, ptr %6, align 4
  %8 = load ptr, ptr %4, align 8
  %9 = getelementptr inbounds %class.MutexLockerImpl, ptr %8, i32 0, i32 0
  %10 = load ptr, ptr %5, align 8
  store ptr %10, ptr %9, align 8
  %11 = load i32, ptr %6, align 4
  %12 = icmp eq i32 %11, 1
  %13 = zext i1 %12 to i8
  store i8 %13, ptr %7, align 1
  %14 = getelementptr inbounds %class.MutexLockerImpl, ptr %8, i32 0, i32 0
  %15 = load ptr, ptr %14, align 8
  %16 = icmp ne ptr %15, null
  br i1 %16, label %17, label %27

17:                                               ; preds = %3
  %18 = load i8, ptr %7, align 1
  %19 = trunc i8 %18 to i1
  br i1 %19, label %20, label %23

20:                                               ; preds = %17
  %21 = getelementptr inbounds %class.MutexLockerImpl, ptr %8, i32 0, i32 0
  %22 = load ptr, ptr %21, align 8
  call void @_ZN5Mutex28lock_without_safepoint_checkEv(ptr noundef nonnull align 8 dereferenceable(104) %22)
  br label %26

23:                                               ; preds = %17
  %24 = getelementptr inbounds %class.MutexLockerImpl, ptr %8, i32 0, i32 0
  %25 = load ptr, ptr %24, align 8
  call void @_ZN5Mutex4lockEv(ptr noundef nonnull align 8 dereferenceable(104) %25)
  br label %26

26:                                               ; preds = %23, %20
  br label %27

27:                                               ; preds = %26, %3
  ret void
}

; Function Attrs: mustprogress nounwind uwtable
define linkonce_odr hidden noundef i32 @_Z5log2iIiTnNSt9enable_ifIXcvbsr3std11is_integralIT_EE5valueEiE4typeELi0EEiS1_(i32 noundef %0) #1 comdat {
  %2 = alloca i32, align 4
  %3 = alloca i32, align 4
  store i32 %0, ptr %2, align 4
  store i32 32, ptr %3, align 4
  %4 = load i32, ptr %2, align 4
  %5 = call noundef i32 @_Z19count_leading_zerosIiEjT_(i32 noundef %4)
  %6 = sub i32 32, %5
  %7 = sub i32 %6, 1
  ret i32 %7
}

; Function Attrs: mustprogress nounwind uwtable
define linkonce_odr hidden noundef zeroext i1 @_Z13is_power_of_2IiTnNSt9enable_ifIXcvbsr3std11is_integralIT_EE5valueEiE4typeELi0EEbS1_(i32 noundef %0) #1 comdat {
  %2 = alloca i32, align 4
  store i32 %0, ptr %2, align 4
  %3 = load i32, ptr %2, align 4
  %4 = icmp sgt i32 %3, 0
  br i1 %4, label %5, label %11

5:                                                ; preds = %1
  %6 = load i32, ptr %2, align 4
  %7 = load i32, ptr %2, align 4
  %8 = sub nsw i32 %7, 1
  %9 = and i32 %6, %8
  %10 = icmp eq i32 %9, 0
  br label %11

11:                                               ; preds = %5, %1
  %12 = phi i1 [ false, %1 ], [ %10, %5 ]
  ret i1 %12
}

; Function Attrs: mustprogress nounwind uwtable
define linkonce_odr hidden void @_ZN11MutexLockerD2Ev(ptr noundef nonnull align 8 dereferenceable(8) %0) unnamed_addr #1 comdat align 2 {
  %2 = alloca ptr, align 8
  store ptr %0, ptr %2, align 8
  %3 = load ptr, ptr %2, align 8
  call void @_ZN15MutexLockerImplD2Ev(ptr noundef nonnull align 8 dereferenceable(8) %3) #12
  ret void
}

; Function Attrs: mustprogress nounwind uwtable
define linkonce_odr hidden void @_ZN6Atomic5storeIN11StringDedup5Table9DeadStateES3_EEvPVT_T0_(ptr noundef %0, i32 noundef %1) #1 comdat align 2 {
  %3 = alloca ptr, align 8
  %4 = alloca i32, align 4
  %5 = alloca %"struct.Atomic::StoreImpl.62", align 1
  store ptr %0, ptr %3, align 8
  store i32 %1, ptr %4, align 4
  %6 = load ptr, ptr %3, align 8
  %7 = load i32, ptr %4, align 4
  call void @_ZNK6Atomic9StoreImplIN11StringDedup5Table9DeadStateES3_NS_13PlatformStoreILm4EEEvEclEPVS3_S3_(ptr noundef nonnull align 1 dereferenceable(1) %5, ptr noundef %6, i32 noundef %7)
  ret void
}

; Function Attrs: mustprogress nounwind uwtable
define linkonce_odr hidden void @_ZN6Atomic5storeImmEEvPVT_T0_(ptr noundef %0, i64 noundef %1) #1 comdat align 2 {
  %3 = alloca ptr, align 8
  %4 = alloca i64, align 8
  %5 = alloca %"struct.Atomic::StoreImpl", align 1
  store ptr %0, ptr %3, align 8
  store i64 %1, ptr %4, align 8
  %6 = load ptr, ptr %3, align 8
  %7 = load i64, ptr %4, align 8
  call void @_ZNK6Atomic9StoreImplImmNS_13PlatformStoreILm8EEEvEclEPVmm(ptr noundef nonnull align 1 dereferenceable(1) %5, ptr noundef %6, i64 noundef %7)
  ret void
}

; Function Attrs: mustprogress nounwind uwtable
define linkonce_odr hidden void @_ZN11MutexLockerC2EP5MutexNS0_18SafepointCheckFlagE(ptr noundef nonnull align 8 dereferenceable(8) %0, ptr noundef %1, i32 noundef %2) unnamed_addr #1 comdat align 2 {
  %4 = alloca ptr, align 8
  %5 = alloca ptr, align 8
  %6 = alloca i32, align 4
  store ptr %0, ptr %4, align 8
  store ptr %1, ptr %5, align 8
  store i32 %2, ptr %6, align 4
  %7 = load ptr, ptr %4, align 8
  %8 = load ptr, ptr %5, align 8
  %9 = load i32, ptr %6, align 4
  call void @_ZN15MutexLockerImplC2EP5MutexNS0_18SafepointCheckFlagE(ptr noundef nonnull align 8 dereferenceable(8) %7, ptr noundef %8, i32 noundef %9)
  ret void
}

; Function Attrs: mustprogress nounwind uwtable
define linkonce_odr hidden noundef i32 @_Z19round_up_power_of_2IiTnNSt9enable_ifIXcvbsr3std11is_integralIT_EE5valueEiE4typeELi0EES1_S1_(i32 noundef %0) #1 comdat {
  %2 = alloca i32, align 4
  %3 = alloca i32, align 4
  store i32 %0, ptr %3, align 4
  %4 = load i32, ptr %3, align 4
  %5 = call noundef zeroext i1 @_Z13is_power_of_2IiTnNSt9enable_ifIXcvbsr3std11is_integralIT_EE5valueEiE4typeELi0EEbS1_(i32 noundef %4)
  br i1 %5, label %6, label %8

6:                                                ; preds = %1
  %7 = load i32, ptr %3, align 4
  store i32 %7, ptr %2, align 4
  br label %13

8:                                                ; preds = %1
  %9 = load i32, ptr %3, align 4
  %10 = call noundef i32 @_Z5log2iIiTnNSt9enable_ifIXcvbsr3std11is_integralIT_EE5valueEiE4typeELi0EEiS1_(i32 noundef %9)
  %11 = add nsw i32 %10, 1
  %12 = shl i32 1, %11
  store i32 %12, ptr %2, align 4
  br label %13

13:                                               ; preds = %8, %6
  %14 = load i32, ptr %2, align 4
  ret i32 %14
}

; Function Attrs: mustprogress nounwind uwtable
define linkonce_odr hidden void @_ZN11StringDedup5Table12CleanupStateC2Ev(ptr noundef nonnull align 8 dereferenceable(8) %0) unnamed_addr #1 comdat align 2 {
  %2 = alloca ptr, align 8
  store ptr %0, ptr %2, align 8
  %3 = load ptr, ptr %2, align 8
  store ptr getelementptr inbounds inrange(-16, 48) ({ [8 x ptr] }, ptr @_ZTVN11StringDedup5Table12CleanupStateE, i32 0, i32 0, i32 2), ptr %3, align 8
  ret void
}

; Function Attrs: mustprogress nounwind uwtable
define hidden void @_ZN11StringDedup5Table23set_dead_state_cleaningEv() #1 align 2 {
  %1 = alloca %class.MutexLocker, align 8
  %2 = load ptr, ptr @StringDedup_lock, align 8
  call void @_ZN11MutexLockerC2EP5MutexNS0_18SafepointCheckFlagE(ptr noundef nonnull align 8 dereferenceable(8) %1, ptr noundef %2, i32 noundef 1)
  call void @_ZN6Atomic5storeImmEEvPVT_T0_(ptr noundef @_ZN11StringDedup5Table11_dead_countE, i64 noundef 0)
  call void @_ZN6Atomic5storeIN11StringDedup5Table9DeadStateES3_EEvPVT_T0_(ptr noundef @_ZN11StringDedup5Table11_dead_stateE, i32 noundef 3)
  call void @_ZN11MutexLockerD2Ev(ptr noundef nonnull align 8 dereferenceable(8) %1) #12
  ret void
}

; Function Attrs: mustprogress nounwind uwtable
define hidden noundef i32 @_ZN11StringDedup5Table6Bucket15needed_capacityEi(i32 noundef %0) #1 align 2 {
  %2 = alloca i32, align 4
  %3 = alloca i32, align 4
  %4 = alloca i32, align 4
  %5 = alloca i32, align 4
  store i32 %0, ptr %3, align 4
  %6 = load i32, ptr %3, align 4
  %7 = icmp eq i32 %6, 0
  br i1 %7, label %8, label %9

8:                                                ; preds = %1
  store i32 0, ptr %2, align 4
  br label %25

9:                                                ; preds = %1
  %10 = load i32, ptr %3, align 4
  %11 = call noundef i32 @_Z19round_up_power_of_2IiTnNSt9enable_ifIXcvbsr3std11is_integralIT_EE5valueEiE4typeELi0EES1_S1_(i32 noundef %10)
  store i32 %11, ptr %4, align 4
  %12 = load i32, ptr %4, align 4
  %13 = load i32, ptr %4, align 4
  %14 = sdiv i32 %13, 4
  %15 = sub nsw i32 %12, %14
  store i32 %15, ptr %5, align 4
  %16 = load i32, ptr %3, align 4
  %17 = load i32, ptr %5, align 4
  %18 = icmp sle i32 %16, %17
  br i1 %18, label %19, label %21

19:                                               ; preds = %9
  %20 = load i32, ptr %5, align 4
  br label %23

21:                                               ; preds = %9
  %22 = load i32, ptr %4, align 4
  br label %23

23:                                               ; preds = %21, %19
  %24 = phi i32 [ %20, %19 ], [ %22, %21 ]
  store i32 %24, ptr %2, align 4
  br label %25

25:                                               ; preds = %23, %8
  %26 = load i32, ptr %2, align 4
  ret i32 %26
}

; Function Attrs: mustprogress nounwind uwtable
define linkonce_odr hidden noundef i32 @_Z12checked_castIimET_T0_(i64 noundef %0) #1 comdat {
  %2 = alloca i64, align 8
  %3 = alloca i32, align 4
  store i64 %0, ptr %2, align 8
  %4 = load i64, ptr %2, align 8
  %5 = trunc i64 %4 to i32
  store i32 %5, ptr %3, align 4
  %6 = load i32, ptr %3, align 4
  ret i32 %6
}

; Function Attrs: mustprogress nounwind uwtable
define linkonce_odr hidden void @_ZN11StringDedup5Table7ResizerC2EbPNS0_6BucketEm(ptr noundef nonnull align 8 dereferenceable(40) %0, i1 noundef zeroext %1, ptr noundef %2, i64 noundef %3) unnamed_addr #1 comdat align 2 {
  %5 = alloca ptr, align 8
  %6 = alloca i8, align 1
  %7 = alloca ptr, align 8
  %8 = alloca i64, align 8
  store ptr %0, ptr %5, align 8
  %9 = zext i1 %1 to i8
  store i8 %9, ptr %6, align 1
  store ptr %2, ptr %7, align 8
  store i64 %3, ptr %8, align 8
  %10 = load ptr, ptr %5, align 8
  call void @_ZN11StringDedup5Table12CleanupStateC2Ev(ptr noundef nonnull align 8 dereferenceable(8) %10) #12
  store ptr getelementptr inbounds inrange(-16, 48) ({ [8 x ptr] }, ptr @_ZTVN11StringDedup5Table7ResizerE, i32 0, i32 0, i32 2), ptr %10, align 8
  %11 = getelementptr inbounds %"class.StringDedup::Table::Resizer", ptr %10, i32 0, i32 1
  %12 = load ptr, ptr %7, align 8
  store ptr %12, ptr %11, align 8
  %13 = getelementptr inbounds %"class.StringDedup::Table::Resizer", ptr %10, i32 0, i32 2
  %14 = load i64, ptr %8, align 8
  store i64 %14, ptr %13, align 8
  %15 = getelementptr inbounds %"class.StringDedup::Table::Resizer", ptr %10, i32 0, i32 3
  store i64 0, ptr %15, align 8
  %16 = getelementptr inbounds %"class.StringDedup::Table::Resizer", ptr %10, i32 0, i32 4
  %17 = load i8, ptr %6, align 1
  %18 = trunc i8 %17 to i1
  br i1 %18, label %19, label %21

19:                                               ; preds = %4
  %20 = load i64, ptr @_ZN11StringDedup5Table18_number_of_bucketsE, align 8
  br label %22

21:                                               ; preds = %4
  br label %22

22:                                               ; preds = %21, %19
  %23 = phi i64 [ %20, %19 ], [ 0, %21 ]
  store i64 %23, ptr %16, align 8
  %24 = load i8, ptr %6, align 1
  %25 = trunc i8 %24 to i1
  %26 = xor i1 %25, true
  %27 = zext i1 %26 to i8
  store i8 %27, ptr @_ZN11StringDedup5Table22_need_bucket_shrinkingE, align 1
  ret void
}

; Function Attrs: mustprogress nounwind uwtable
define hidden noundef zeroext i1 @_ZN11StringDedup5Table13start_resizerEbm(i1 noundef zeroext %0, i64 noundef %1) #1 align 2 {
  %3 = alloca i64, align 8
  %4 = alloca i8, align 1
  %5 = alloca i64, align 8
  %6 = alloca i8, align 1
  %7 = alloca i64, align 8
  %8 = alloca i64, align 8
  %9 = alloca i64, align 8
  %10 = zext i1 %0 to i8
  store i8 %10, ptr %6, align 1
  store i64 %1, ptr %7, align 8
  %11 = load i64, ptr %7, align 8
  %12 = call noundef i64 @_ZN11StringDedup6Config18desired_table_sizeEm(i64 noundef %11)
  store i64 %12, ptr %8, align 8
  %13 = load i64, ptr %8, align 8
  %14 = load i64, ptr @_ZN11StringDedup5Table18_number_of_bucketsE, align 8
  %15 = load i64, ptr %7, align 8
  call void @_ZN11StringDedup4Stat25report_resize_table_startEmmm(ptr noundef nonnull align 8 dereferenceable(248) @_ZN11StringDedup9_cur_statE, i64 noundef %13, i64 noundef %14, i64 noundef %15)
  store i64 40, ptr %5, align 8
  %16 = load i64, ptr %5, align 8
  store i64 %16, ptr %3, align 8
  store i8 25, ptr %4, align 1
  %17 = load i64, ptr %3, align 8
  %18 = load i8, ptr %4, align 1
  %19 = call noundef ptr @_Z12AllocateHeapm8MEMFLAGSN17AllocFailStrategy13AllocFailEnumE(i64 noundef %17, i8 noundef zeroext %18, i32 noundef 0) #12
  %20 = load i8, ptr %6, align 1
  %21 = trunc i8 %20 to i1
  %22 = load ptr, ptr @_ZN11StringDedup5Table8_bucketsE, align 8
  %23 = load i64, ptr @_ZN11StringDedup5Table18_number_of_bucketsE, align 8
  call void @_ZN11StringDedup5Table7ResizerC2EbPNS0_6BucketEm(ptr noundef nonnull align 8 dereferenceable(40) %19, i1 noundef zeroext %21, ptr noundef %22, i64 noundef %23)
  store ptr %19, ptr @_ZN11StringDedup5Table14_cleanup_stateE, align 8
  %24 = load i64, ptr %7, align 8
  %25 = load i64, ptr %8, align 8
  %26 = udiv i64 %24, %25
  %27 = call noundef i32 @_Z12checked_castIimET_T0_(i64 noundef %26)
  %28 = call noundef i32 @_ZN11StringDedup5Table6Bucket15needed_capacityEi(i32 noundef %27)
  %29 = sext i32 %28 to i64
  store i64 %29, ptr %9, align 8
  %30 = load i64, ptr %8, align 8
  %31 = load i64, ptr %9, align 8
  %32 = call noundef ptr @_ZN11StringDedup5Table12make_bucketsEmm(i64 noundef %30, i64 noundef %31)
  store ptr %32, ptr @_ZN11StringDedup5Table8_bucketsE, align 8
  %33 = load i64, ptr %8, align 8
  store i64 %33, ptr @_ZN11StringDedup5Table18_number_of_bucketsE, align 8
  store i64 0, ptr @_ZN11StringDedup5Table18_number_of_entriesE, align 8
  %34 = load i64, ptr %8, align 8
  %35 = call noundef i64 @_ZN11StringDedup6Config14grow_thresholdEm(i64 noundef %34)
  store i64 %35, ptr @_ZN11StringDedup5Table15_grow_thresholdE, align 8
  call void @_ZN11StringDedup5Table23set_dead_state_cleaningEv()
  ret i1 true
}