; Function Attrs: mustprogress nounwind uwtable
define hidden noundef zeroext i1 @_ZN11StringDedup5Table13start_resizerEbm(i1 noundef zeroext %0, i64 noundef %1) local_unnamed_addr #0 align 2 {
  %3 = tail call noundef i64 @_ZN11StringDedup6Config18desired_table_sizeEm(i64 noundef %1) #13
  %4 = load i64, ptr @_ZN11StringDedup5Table18_number_of_bucketsE, align 8
  tail call void @_ZN11StringDedup4Stat25report_resize_table_startEmmm(ptr noundef nonnull align 8 dereferenceable(248) @_ZN11StringDedup9_cur_statE, i64 noundef %3, i64 noundef %4, i64 noundef %1) #13
  %5 = tail call noundef ptr @_Z12AllocateHeapm8MEMFLAGSN17AllocFailStrategy13AllocFailEnumE(i64 noundef 40, i8 noundef zeroext 25, i32 noundef 0) #13
  %6 = load ptr, ptr @_ZN11StringDedup5Table8_bucketsE, align 8
  %7 = load i64, ptr @_ZN11StringDedup5Table18_number_of_bucketsE, align 8
  store ptr getelementptr inbounds inrange(-16, 48) (i8, ptr @_ZTVN11StringDedup5Table7ResizerE, i64 16), ptr %5, align 8
  %8 = getelementptr inbounds i8, ptr %5, i64 8
  store ptr %6, ptr %8, align 8
  %9 = getelementptr inbounds i8, ptr %5, i64 16
  store i64 %7, ptr %9, align 8
  %10 = getelementptr inbounds i8, ptr %5, i64 24
  store i64 0, ptr %10, align 8
  %11 = getelementptr inbounds i8, ptr %5, i64 32
  %12 = load i64, ptr @_ZN11StringDedup5Table18_number_of_bucketsE, align 8
  %13 = select i1 %0, i64 %12, i64 0
  store i64 %13, ptr %11, align 8
  %14 = xor i1 %0, true
  %15 = zext i1 %14 to i8
  store i8 %15, ptr @_ZN11StringDedup5Table22_need_bucket_shrinkingE, align 1
  store ptr %5, ptr @_ZN11StringDedup5Table14_cleanup_stateE, align 8
  %16 = udiv i64 %1, %3
  %17 = trunc i64 %16 to i32
  %18 = icmp eq i32 %17, 0
  br i1 %18, label %_ZN11StringDedup5Table6Bucket15needed_capacityEi.exit, label %19

19:                                               ; preds = %2
  %20 = icmp sgt i32 %17, 0
  %21 = add nuw i32 %17, 2147483647
  %22 = and i32 %21, %17
  %23 = icmp eq i32 %22, 0
  %24 = select i1 %20, i1 %23, i1 false
  %25 = tail call range(i32 0, 33) i32 @llvm.ctlz.i32(i32 %17, i1 true)
  %26 = sub nuw nsw i32 32, %25
  %27 = shl nuw i32 1, %26
  %.0.i.i = select i1 %24, i32 %17, i32 %27
  %.neg.i = sdiv i32 %.0.i.i, -4
  %28 = add i32 %.neg.i, %.0.i.i
  %.not.i = icmp slt i32 %28, %17
  %29 = select i1 %.not.i, i32 %.0.i.i, i32 %28
  %30 = sext i32 %29 to i64
  br label %_ZN11StringDedup5Table6Bucket15needed_capacityEi.exit

_ZN11StringDedup5Table6Bucket15needed_capacityEi.exit: ; preds = %2, %19
  %.0.i = phi i64 [ %30, %19 ], [ 0, %2 ]
  %31 = tail call noundef ptr @_ZN11StringDedup5Table12make_bucketsEmm(i64 noundef %3, i64 noundef %.0.i)
  store ptr %31, ptr @_ZN11StringDedup5Table8_bucketsE, align 8
  store i64 %3, ptr @_ZN11StringDedup5Table18_number_of_bucketsE, align 8
  store i64 0, ptr @_ZN11StringDedup5Table18_number_of_entriesE, align 8
  %32 = tail call noundef i64 @_ZN11StringDedup6Config14grow_thresholdEm(i64 noundef %3) #13
  store i64 %32, ptr @_ZN11StringDedup5Table15_grow_thresholdE, align 8
  %33 = load ptr, ptr @StringDedup_lock, align 8
  %.not.i.i.i = icmp eq ptr %33, null
  br i1 %.not.i.i.i, label %_ZN11MutexLockerC2EP5MutexNS0_18SafepointCheckFlagE.exit.thread.i, label %34

_ZN11MutexLockerC2EP5MutexNS0_18SafepointCheckFlagE.exit.thread.i: ; preds = %_ZN11StringDedup5Table6Bucket15needed_capacityEi.exit
  store volatile i64 0, ptr @_ZN11StringDedup5Table11_dead_countE, align 8
  store volatile i32 3, ptr @_ZN11StringDedup5Table11_dead_stateE, align 4
  br label %_ZN11StringDedup5Table23set_dead_state_cleaningEv.exit

34:                                               ; preds = %_ZN11StringDedup5Table6Bucket15needed_capacityEi.exit
  tail call void @_ZN5Mutex28lock_without_safepoint_checkEv(ptr noundef nonnull align 8 dereferenceable(104) %33) #13
  store volatile i64 0, ptr @_ZN11StringDedup5Table11_dead_countE, align 8
  store volatile i32 3, ptr @_ZN11StringDedup5Table11_dead_stateE, align 4
  tail call void @_ZN5Mutex6unlockEv(ptr noundef nonnull align 8 dereferenceable(104) %33) #13
  br label %_ZN11StringDedup5Table23set_dead_state_cleaningEv.exit

_ZN11StringDedup5Table23set_dead_state_cleaningEv.exit: ; preds = %_ZN11MutexLockerC2EP5MutexNS0_18SafepointCheckFlagE.exit.thread.i, %34
  ret i1 true
}